; ModuleID = '19/2898.c'
source_filename = "19/2898.c"
target datalayout = "e-m:e-p270:32:32-p271:32:32-p272:64:64-i64:64-f80:128-n8:16:32:64-S128"
target triple = "x86_64-pc-linux-gnu"

@.str = private unnamed_addr constant [3 x i8] c"%s\00", align 1
@.str.1 = private unnamed_addr constant [4 x i8] c"%s\0A\00", align 1

; Function Attrs: noinline nounwind uwtable
define dso_local i32 @main() #0 {
  %1 = alloca i32, align 4
  %2 = alloca i8*, align 8
  %3 = alloca i8*, align 8
  %4 = alloca i8*, align 8
  %5 = alloca i8*, align 8
  %6 = alloca i32, align 4
  %7 = alloca i32, align 4
  %8 = alloca i32, align 4
  %9 = alloca i32, align 4
  %10 = alloca i32, align 4
  %11 = alloca i32, align 4
  %12 = alloca i32, align 4
  %13 = alloca i32, align 4
  store i32 0, i32* %1, align 4
  %14 = call noalias i8* @malloc(i64 100) #4
  store i8* %14, i8** %2, align 8
  %15 = call noalias i8* @malloc(i64 100) #4
  store i8* %15, i8** %3, align 8
  %16 = call noalias i8* @malloc(i64 100) #4
  store i8* %16, i8** %4, align 8
  %17 = call noalias i8* @malloc(i64 100) #4
  store i8* %17, i8** %5, align 8
  %18 = load i8*, i8** %2, align 8
  %19 = call i32 (i8*, ...) bitcast (i32 (...)* @gets to i32 (i8*, ...)*)(i8* %18)
  %20 = load i8*, i8** %4, align 8
  %21 = call i32 (i8*, ...) @__isoc99_scanf(i8* getelementptr inbounds ([3 x i8], [3 x i8]* @.str, i64 0, i64 0), i8* %20)
  %22 = load i8*, i8** %5, align 8
  %23 = call i32 (i8*, ...) @__isoc99_scanf(i8* getelementptr inbounds ([3 x i8], [3 x i8]* @.str, i64 0, i64 0), i8* %22)
  %24 = load i8*, i8** %2, align 8
  %25 = call i64 @strlen(i8* %24) #5
  %26 = trunc i64 %25 to i32
  store i32 %26, i32* %6, align 4
  %27 = load i8*, i8** %4, align 8
  %28 = call i64 @strlen(i8* %27) #5
  %29 = trunc i64 %28 to i32
  store i32 %29, i32* %7, align 4
  %30 = load i8*, i8** %5, align 8
  %31 = call i64 @strlen(i8* %30) #5
  %32 = trunc i64 %31 to i32
  store i32 %32, i32* %8, align 4
  store i32 0, i32* %9, align 4
  store i32 0, i32* %10, align 4
  br label %33

33:                                               ; preds = %170, %0
  %34 = load i32, i32* %10, align 4
  %35 = load i32, i32* %6, align 4
  %36 = icmp slt i32 %34, %35
  br i1 %36, label %37, label %173

37:                                               ; preds = %33
  %38 = load i8*, i8** %2, align 8
  %39 = load i32, i32* %10, align 4
  %40 = sext i32 %39 to i64
  %41 = getelementptr inbounds i8, i8* %38, i64 %40
  %42 = load i8, i8* %41, align 1
  %43 = sext i8 %42 to i32
  %44 = load i8*, i8** %4, align 8
  %45 = getelementptr inbounds i8, i8* %44, i64 0
  %46 = load i8, i8* %45, align 1
  %47 = sext i8 %46 to i32
  %48 = icmp eq i32 %43, %47
  br i1 %48, label %49, label %157

49:                                               ; preds = %37
  %50 = load i32, i32* %10, align 4
  %51 = icmp eq i32 %50, 0
  br i1 %51, label %61, label %52

52:                                               ; preds = %49
  %53 = load i8*, i8** %2, align 8
  %54 = load i32, i32* %10, align 4
  %55 = sub nsw i32 %54, 1
  %56 = sext i32 %55 to i64
  %57 = getelementptr inbounds i8, i8* %53, i64 %56
  %58 = load i8, i8* %57, align 1
  %59 = sext i8 %58 to i32
  %60 = icmp eq i32 %59, 32
  br i1 %60, label %61, label %157

61:                                               ; preds = %52, %49
  store i32 0, i32* %12, align 4
  store i32 1, i32* %11, align 4
  br label %62

62:                                               ; preds = %84, %61
  %63 = load i32, i32* %11, align 4
  %64 = load i32, i32* %7, align 4
  %65 = icmp slt i32 %63, %64
  br i1 %65, label %66, label %87

66:                                               ; preds = %62
  %67 = load i8*, i8** %2, align 8
  %68 = load i32, i32* %10, align 4
  %69 = load i32, i32* %11, align 4
  %70 = add nsw i32 %68, %69
  %71 = sext i32 %70 to i64
  %72 = getelementptr inbounds i8, i8* %67, i64 %71
  %73 = load i8, i8* %72, align 1
  %74 = sext i8 %73 to i32
  %75 = load i8*, i8** %4, align 8
  %76 = load i32, i32* %11, align 4
  %77 = sext i32 %76 to i64
  %78 = getelementptr inbounds i8, i8* %75, i64 %77
  %79 = load i8, i8* %78, align 1
  %80 = sext i8 %79 to i32
  %81 = icmp ne i32 %74, %80
  br i1 %81, label %82, label %83

82:                                               ; preds = %66
  store i32 1, i32* %12, align 4
  br label %87

83:                                               ; preds = %66
  br label %84

84:                                               ; preds = %83
  %85 = load i32, i32* %11, align 4
  %86 = add nsw i32 %85, 1
  store i32 %86, i32* %11, align 4
  br label %62

87:                                               ; preds = %82, %62
  %88 = load i32, i32* %12, align 4
  %89 = icmp ne i32 %88, 0
  br i1 %89, label %90, label %102

90:                                               ; preds = %87
  %91 = load i8*, i8** %2, align 8
  %92 = load i32, i32* %10, align 4
  %93 = sext i32 %92 to i64
  %94 = getelementptr inbounds i8, i8* %91, i64 %93
  %95 = load i8, i8* %94, align 1
  %96 = load i8*, i8** %3, align 8
  %97 = load i32, i32* %9, align 4
  %98 = sext i32 %97 to i64
  %99 = getelementptr inbounds i8, i8* %96, i64 %98
  store i8 %95, i8* %99, align 1
  %100 = load i32, i32* %9, align 4
  %101 = add nsw i32 %100, 1
  store i32 %101, i32* %9, align 4
  br label %156

102:                                              ; preds = %87
  %103 = load i32, i32* %10, align 4
  %104 = load i32, i32* %11, align 4
  %105 = add nsw i32 %103, %104
  %106 = load i32, i32* %6, align 4
  %107 = icmp eq i32 %105, %106
  br i1 %107, label %118, label %108

108:                                              ; preds = %102
  %109 = load i8*, i8** %2, align 8
  %110 = load i32, i32* %10, align 4
  %111 = load i32, i32* %11, align 4
  %112 = add nsw i32 %110, %111
  %113 = sext i32 %112 to i64
  %114 = getelementptr inbounds i8, i8* %109, i64 %113
  %115 = load i8, i8* %114, align 1
  %116 = sext i8 %115 to i32
  %117 = icmp eq i32 %116, 32
  br i1 %117, label %118, label %155

118:                                              ; preds = %108, %102
  %119 = load i32, i32* %10, align 4
  %120 = icmp eq i32 %119, 0
  br i1 %120, label %130, label %121

121:                                              ; preds = %118
  %122 = load i8*, i8** %2, align 8
  %123 = load i32, i32* %10, align 4
  %124 = sub nsw i32 %123, 1
  %125 = sext i32 %124 to i64
  %126 = getelementptr inbounds i8, i8* %122, i64 %125
  %127 = load i8, i8* %126, align 1
  %128 = sext i8 %127 to i32
  %129 = icmp eq i32 %128, 32
  br i1 %129, label %130, label %155

130:                                              ; preds = %121, %118
  store i32 0, i32* %13, align 4
  br label %131

131:                                              ; preds = %147, %130
  %132 = load i32, i32* %13, align 4
  %133 = load i32, i32* %8, align 4
  %134 = icmp slt i32 %132, %133
  br i1 %134, label %135, label %150

135:                                              ; preds = %131
  %136 = load i8*, i8** %5, align 8
  %137 = load i32, i32* %13, align 4
  %138 = sext i32 %137 to i64
  %139 = getelementptr inbounds i8, i8* %136, i64 %138
  %140 = load i8, i8* %139, align 1
  %141 = load i8*, i8** %3, align 8
  %142 = load i32, i32* %9, align 4
  %143 = sext i32 %142 to i64
  %144 = getelementptr inbounds i8, i8* %141, i64 %143
  store i8 %140, i8* %144, align 1
  %145 = load i32, i32* %9, align 4
  %146 = add nsw i32 %145, 1
  store i32 %146, i32* %9, align 4
  br label %147

147:                                              ; preds = %135
  %148 = load i32, i32* %13, align 4
  %149 = add nsw i32 %148, 1
  store i32 %149, i32* %13, align 4
  br label %131

150:                                              ; preds = %131
  %151 = load i32, i32* %10, align 4
  %152 = load i32, i32* %11, align 4
  %153 = add nsw i32 %151, %152
  %154 = sub nsw i32 %153, 1
  store i32 %154, i32* %10, align 4
  br label %155

155:                                              ; preds = %150, %121, %108
  br label %156

156:                                              ; preds = %155, %90
  br label %169

157:                                              ; preds = %52, %37
  %158 = load i8*, i8** %2, align 8
  %159 = load i32, i32* %10, align 4
  %160 = sext i32 %159 to i64
  %161 = getelementptr inbounds i8, i8* %158, i64 %160
  %162 = load i8, i8* %161, align 1
  %163 = load i8*, i8** %3, align 8
  %164 = load i32, i32* %9, align 4
  %165 = sext i32 %164 to i64
  %166 = getelementptr inbounds i8, i8* %163, i64 %165
  store i8 %162, i8* %166, align 1
  %167 = load i32, i32* %9, align 4
  %168 = add nsw i32 %167, 1
  store i32 %168, i32* %9, align 4
  br label %169

169:                                              ; preds = %157, %156
  br label %170

170:                                              ; preds = %169
  %171 = load i32, i32* %10, align 4
  %172 = add nsw i32 %171, 1
  store i32 %172, i32* %10, align 4
  br label %33

173:                                              ; preds = %33
  %174 = load i8*, i8** %3, align 8
  %175 = call i32 (i8*, ...) @printf(i8* getelementptr inbounds ([4 x i8], [4 x i8]* @.str.1, i64 0, i64 0), i8* %174)
  ret i32 0
}

; Function Attrs: nounwind
declare dso_local noalias i8* @malloc(i64) #1

declare dso_local i32 @gets(...) #2

declare dso_local i32 @__isoc99_scanf(i8*, ...) #2

; Function Attrs: nounwind readonly
declare dso_local i64 @strlen(i8*) #3

declare dso_local i32 @printf(i8*, ...) #2


!llvm.module.flags = !{!0}
!llvm.ident = !{!1}

!0 = !{i32 1, !"wchar_size", i32 4}
!1 = !{!"clang version 10.0.0-4ubuntu1 "}
